; Function Attrs: mustprogress nounwind uwtable
define dso_local noundef zeroext i1 @_ZN4llvm12DIExpression17isEqualExpressionEPKS0_bS2_b(ptr nocapture noundef readonly %0, i1 noundef zeroext %1, ptr nocapture noundef readonly %2, i1 noundef zeroext %3) local_unnamed_addr #0 align 2 {
  %5 = alloca %"class.llvm::SmallVector.617", align 8
  %6 = alloca %"class.llvm::SmallVector.617", align 8
  %7 = getelementptr inbounds i8, ptr %5, i64 16
  call void @_ZN4llvm15SmallVectorBaseIjEC2EPvm(ptr noundef nonnull align 8 dereferenceable(16) %5, ptr noundef nonnull %7, i64 noundef 6) #24
  call void @_ZN4llvm12DIExpression25canonicalizeExpressionOpsERNS_15SmallVectorImplImEEPKS0_b(ptr noundef nonnull align 8 dereferenceable(16) %5, ptr noundef %0, i1 noundef zeroext %1)
  %8 = getelementptr inbounds i8, ptr %6, i64 16
  call void @_ZN4llvm15SmallVectorBaseIjEC2EPvm(ptr noundef nonnull align 8 dereferenceable(16) %6, ptr noundef nonnull %8, i64 noundef 6) #24
  call void @_ZN4llvm12DIExpression25canonicalizeExpressionOpsERNS_15SmallVectorImplImEEPKS0_b(ptr noundef nonnull align 8 dereferenceable(16) %6, ptr noundef %2, i1 noundef zeroext %3)
  %9 = call noundef i64 @_ZNK4llvm15SmallVectorBaseIjE4sizeEv(ptr noundef nonnull align 8 dereferenceable(16) %5) #24
  %10 = call noundef i64 @_ZNK4llvm15SmallVectorBaseIjE4sizeEv(ptr noundef nonnull align 8 dereferenceable(16) %6) #24
  %.not.i = icmp eq i64 %9, %10
  br i1 %.not.i, label %11, label %_ZNK4llvm15SmallVectorImplImEeqERKS1_.exit

11:                                               ; preds = %4
  %12 = load ptr, ptr %5, align 8
  %13 = call noundef i64 @_ZNK4llvm15SmallVectorBaseIjE4sizeEv(ptr noundef nonnull align 8 dereferenceable(16) %5) #24
  %.not.i.i.i.i.i = icmp eq i64 %13, 0
  br i1 %.not.i.i.i.i.i, label %_ZNK4llvm15SmallVectorImplImEeqERKS1_.exit, label %14

14:                                               ; preds = %11
  %15 = load ptr, ptr %6, align 8
  %.idx.i = shl nsw i64 %13, 3
  %bcmp.i.i.i.i.i = call i32 @bcmp(ptr %12, ptr %15, i64 %.idx.i)
  %.not7.i.i.i.i.i = icmp eq i32 %bcmp.i.i.i.i.i, 0
  br label %_ZNK4llvm15SmallVectorImplImEeqERKS1_.exit

_ZNK4llvm15SmallVectorImplImEeqERKS1_.exit:       ; preds = %4, %11, %14
  %.0.i = phi i1 [ false, %4 ], [ %.not7.i.i.i.i.i, %14 ], [ true, %11 ]
  %16 = call noundef i64 @_ZNK4llvm15SmallVectorBaseIjE4sizeEv(ptr noundef nonnull align 8 dereferenceable(16) %6) #24
  %17 = load ptr, ptr %6, align 8
  %18 = icmp eq ptr %17, %8
  br i1 %18, label %_ZN4llvm11SmallVectorImLj6EED2Ev.exit, label %19

19:                                               ; preds = %_ZNK4llvm15SmallVectorImplImEeqERKS1_.exit
  call void @free(ptr noundef %17) #24
  br label %_ZN4llvm11SmallVectorImLj6EED2Ev.exit

_ZN4llvm11SmallVectorImLj6EED2Ev.exit:            ; preds = %_ZNK4llvm15SmallVectorImplImEeqERKS1_.exit, %19
  %20 = call noundef i64 @_ZNK4llvm15SmallVectorBaseIjE4sizeEv(ptr noundef nonnull align 8 dereferenceable(16) %5) #24
  %21 = load ptr, ptr %5, align 8
  %22 = icmp eq ptr %21, %7
  br i1 %22, label %_ZN4llvm11SmallVectorImLj6EED2Ev.exit3, label %23

23:                                               ; preds = %_ZN4llvm11SmallVectorImLj6EED2Ev.exit
  call void @free(ptr noundef %21) #24
  br label %_ZN4llvm11SmallVectorImLj6EED2Ev.exit3

_ZN4llvm11SmallVectorImLj6EED2Ev.exit3:           ; preds = %_ZN4llvm11SmallVectorImLj6EED2Ev.exit, %23
  ret i1 %.0.i
}